; Function Attrs: mustprogress uwtable
define hidden noundef ptr @pj_bipc(ptr noundef %0) local_unnamed_addr #0 {
  %.not = icmp eq ptr %0, null
  br i1 %.not, label %16, label %2

2:                                                ; preds = %1
  %3 = tail call noalias dereferenceable_or_null(4) ptr @calloc(i64 noundef 1, i64 noundef 4) #5
  %4 = icmp eq ptr %3, null
  br i1 %4, label %5, label %7

5:                                                ; preds = %2
  %6 = tail call noundef ptr @_Z21pj_default_destructorP8PJconstsi(ptr noundef nonnull %0, i32 noundef 4096)
  br label %_Z33pj_projection_specific_setup_bipcP8PJconsts.exit

7:                                                ; preds = %2
  %8 = getelementptr inbounds nuw i8, ptr %0, i64 88
  store ptr %3, ptr %8, align 8, !tbaa !3
  %9 = load ptr, ptr %0, align 8, !tbaa !36
  %10 = getelementptr inbounds nuw i8, ptr %0, i64 24
  %11 = load ptr, ptr %10, align 8, !tbaa !37
  %12 = tail call i64 @_Z8pj_paramP6pj_ctxP8ARG_listPKc(ptr noundef %9, ptr noundef %11, ptr noundef nonnull @.str.1)
  %.sroa.0.0.extract.trunc.i = trunc i64 %12 to i32
  store i32 %.sroa.0.0.extract.trunc.i, ptr %3, align 4, !tbaa !38
  %13 = getelementptr inbounds nuw i8, ptr %0, i64 112
  store ptr @_ZL14bipc_s_inverse5PJ_XYP8PJconsts, ptr %13, align 8, !tbaa !40
  %14 = getelementptr inbounds nuw i8, ptr %0, i64 104
  store ptr @_ZL14bipc_s_forward5PJ_LPP8PJconsts, ptr %14, align 8, !tbaa !41
  %15 = getelementptr inbounds nuw i8, ptr %0, i64 216
  store double 0.000000e+00, ptr %15, align 8, !tbaa !42
  br label %_Z33pj_projection_specific_setup_bipcP8PJconsts.exit

16:                                               ; preds = %1
  %17 = tail call noundef ptr @_Z6pj_newv()
  %18 = icmp eq ptr %17, null
  br i1 %18, label %_Z33pj_projection_specific_setup_bipcP8PJconsts.exit, label %19

19:                                               ; preds = %16
  %20 = getelementptr inbounds nuw i8, ptr %17, i64 8
  store ptr @.str, ptr %20, align 8, !tbaa !43
  %21 = getelementptr inbounds nuw i8, ptr %17, i64 16
  store ptr @_ZL8des_bipc, ptr %21, align 8, !tbaa !44
  %22 = getelementptr inbounds nuw i8, ptr %17, i64 360
  store i32 1, ptr %22, align 8, !tbaa !45
  %23 = getelementptr inbounds nuw i8, ptr %17, i64 380
  store i32 4, ptr %23, align 4, !tbaa !46
  %24 = getelementptr inbounds nuw i8, ptr %17, i64 384
  store i32 1, ptr %24, align 8, !tbaa !47
  br label %_Z33pj_projection_specific_setup_bipcP8PJconsts.exit

_Z33pj_projection_specific_setup_bipcP8PJconsts.exit: ; preds = %7, %5, %16, %19
  %.0 = phi ptr [ %17, %19 ], [ null, %16 ], [ %6, %5 ], [ %0, %7 ]
  ret ptr %.0
}